
real_time_clock_ATmega8.elf:     file format elf32-avr

Sections:
Idx Name          Size      VMA       LMA       File off  Algn
  0 .text         00000404  00000000  00000000  00000094  2**1
                  CONTENTS, ALLOC, LOAD, READONLY, CODE
  1 .data         00000016  00800060  00000404  00000498  2**0
                  CONTENTS, ALLOC, LOAD, DATA
  2 .bss          0000000a  00800076  00800076  000004ae  2**0
                  ALLOC
  3 .comment      00000030  00000000  00000000  000004ae  2**0
                  CONTENTS, READONLY
  4 .note.gnu.avr.deviceinfo 0000003c  00000000  00000000  000004e0  2**2
                  CONTENTS, READONLY
  5 .debug_aranges 00000078  00000000  00000000  0000051c  2**0
                  CONTENTS, READONLY, DEBUGGING
  6 .debug_info   0000080a  00000000  00000000  00000594  2**0
                  CONTENTS, READONLY, DEBUGGING
  7 .debug_abbrev 000005a5  00000000  00000000  00000d9e  2**0
                  CONTENTS, READONLY, DEBUGGING
  8 .debug_line   0000045f  00000000  00000000  00001343  2**0
                  CONTENTS, READONLY, DEBUGGING
  9 .debug_frame  00000178  00000000  00000000  000017a4  2**2
                  CONTENTS, READONLY, DEBUGGING
 10 .debug_str    000003c1  00000000  00000000  0000191c  2**0
                  CONTENTS, READONLY, DEBUGGING
 11 .debug_loc    000002ac  00000000  00000000  00001cdd  2**0
                  CONTENTS, READONLY, DEBUGGING
 12 .debug_ranges 00000068  00000000  00000000  00001f89  2**0
                  CONTENTS, READONLY, DEBUGGING

Disassembly of section .text:

00000000 <__vectors>:
   0:	12 c0       	rjmp	.+36     	; 0x26 <__ctors_end>
   2:	2c c0       	rjmp	.+88     	; 0x5c <__bad_interrupt>
   4:	2b c0       	rjmp	.+86     	; 0x5c <__bad_interrupt>
   6:	2b c0       	rjmp	.+86     	; 0x5e <__vector_3>
   8:	29 c0       	rjmp	.+82     	; 0x5c <__bad_interrupt>
   a:	28 c0       	rjmp	.+80     	; 0x5c <__bad_interrupt>
   c:	27 c0       	rjmp	.+78     	; 0x5c <__bad_interrupt>
   e:	26 c0       	rjmp	.+76     	; 0x5c <__bad_interrupt>
  10:	25 c0       	rjmp	.+74     	; 0x5c <__bad_interrupt>
  12:	a4 c1       	rjmp	.+840    	; 0x35c <__vector_9>
  14:	23 c0       	rjmp	.+70     	; 0x5c <__bad_interrupt>
  16:	22 c0       	rjmp	.+68     	; 0x5c <__bad_interrupt>
  18:	21 c0       	rjmp	.+66     	; 0x5c <__bad_interrupt>
  1a:	20 c0       	rjmp	.+64     	; 0x5c <__bad_interrupt>
  1c:	1f c0       	rjmp	.+62     	; 0x5c <__bad_interrupt>
  1e:	1e c0       	rjmp	.+60     	; 0x5c <__bad_interrupt>
  20:	1d c0       	rjmp	.+58     	; 0x5c <__bad_interrupt>
  22:	1c c0       	rjmp	.+56     	; 0x5c <__bad_interrupt>
  24:	1b c0       	rjmp	.+54     	; 0x5c <__bad_interrupt>

00000026 <__ctors_end>:
  26:	11 24       	eor	r1, r1
  28:	1f be       	out	0x3f, r1	; 63
  2a:	cf e5       	ldi	r28, 0x5F	; 95
  2c:	d4 e0       	ldi	r29, 0x04	; 4
  2e:	de bf       	out	0x3e, r29	; 62
  30:	cd bf       	out	0x3d, r28	; 61

00000032 <__do_copy_data>:
  32:	10 e0       	ldi	r17, 0x00	; 0
  34:	a0 e6       	ldi	r26, 0x60	; 96
  36:	b0 e0       	ldi	r27, 0x00	; 0
  38:	e4 e0       	ldi	r30, 0x04	; 4
  3a:	f4 e0       	ldi	r31, 0x04	; 4
  3c:	02 c0       	rjmp	.+4      	; 0x42 <__SREG__+0x3>
  3e:	05 90       	lpm	r0, Z+
  40:	0d 92       	st	X+, r0
  42:	a6 37       	cpi	r26, 0x76	; 118
  44:	b1 07       	cpc	r27, r17
  46:	d9 f7       	brne	.-10     	; 0x3e <__SP_H__>

00000048 <__do_clear_bss>:
  48:	20 e0       	ldi	r18, 0x00	; 0
  4a:	a6 e7       	ldi	r26, 0x76	; 118
  4c:	b0 e0       	ldi	r27, 0x00	; 0
  4e:	01 c0       	rjmp	.+2      	; 0x52 <.do_clear_bss_start>

00000050 <.do_clear_bss_loop>:
  50:	1d 92       	st	X+, r1

00000052 <.do_clear_bss_start>:
  52:	a0 38       	cpi	r26, 0x80	; 128
  54:	b2 07       	cpc	r27, r18
  56:	e1 f7       	brne	.-8      	; 0x50 <.do_clear_bss_loop>
  58:	2e d1       	rcall	.+604    	; 0x2b6 <main>
  5a:	d2 c1       	rjmp	.+932    	; 0x400 <_exit>

0000005c <__bad_interrupt>:
  5c:	d1 cf       	rjmp	.-94     	; 0x0 <__vectors>

0000005e <__vector_3>:
	
	TCNT0 = 178; //Записываем число 178 в регистр TCNT0, для получения интервала 2мс. Это интервал срабатывания прерывания по переполнению ТС0
}

ISR (TIMER2_COMP_vect) //Вектор прерывания для ТС2. инкриментируем переменную seconds каждый заход в вектор до тех пор пока она не будет больше 60
{
  5e:	1f 92       	push	r1
  60:	0f 92       	push	r0
  62:	0f b6       	in	r0, 0x3f	; 63
  64:	0f 92       	push	r0
  66:	11 24       	eor	r1, r1
  68:	8f 93       	push	r24
  6a:	9f 93       	push	r25
  6c:	af 93       	push	r26
  6e:	bf 93       	push	r27
	second ++; //Данная переменная хранит общее количество секунд. Раз всекунду происходит инкремент переменной
  70:	80 91 7c 00 	lds	r24, 0x007C	; 0x80007c <second>
  74:	90 91 7d 00 	lds	r25, 0x007D	; 0x80007d <second+0x1>
  78:	a0 91 7e 00 	lds	r26, 0x007E	; 0x80007e <second+0x2>
  7c:	b0 91 7f 00 	lds	r27, 0x007F	; 0x80007f <second+0x3>
  80:	01 96       	adiw	r24, 0x01	; 1
  82:	a1 1d       	adc	r26, r1
  84:	b1 1d       	adc	r27, r1
  86:	80 93 7c 00 	sts	0x007C, r24	; 0x80007c <second>
  8a:	90 93 7d 00 	sts	0x007D, r25	; 0x80007d <second+0x1>
  8e:	a0 93 7e 00 	sts	0x007E, r26	; 0x80007e <second+0x2>
  92:	b0 93 7f 00 	sts	0x007F, r27	; 0x80007f <second+0x3>
	
	if (point != 1) //С помощью данной конструкции if зажигаем раз в секнду точку на втором семисегментном индикаторе
  96:	80 91 60 00 	lds	r24, 0x0060	; 0x800060 <__data_start>
  9a:	81 30       	cpi	r24, 0x01	; 1
  9c:	21 f0       	breq	.+8      	; 0xa6 <__vector_3+0x48>
	{
		point = 1;
  9e:	81 e0       	ldi	r24, 0x01	; 1
  a0:	80 93 60 00 	sts	0x0060, r24	; 0x800060 <__data_start>
  a4:	03 c0       	rjmp	.+6      	; 0xac <__vector_3+0x4e>
	}
	else point = 2;
  a6:	82 e0       	ldi	r24, 0x02	; 2
  a8:	80 93 60 00 	sts	0x0060, r24	; 0x800060 <__data_start>
}
  ac:	bf 91       	pop	r27
  ae:	af 91       	pop	r26
  b0:	9f 91       	pop	r25
  b2:	8f 91       	pop	r24
  b4:	0f 90       	pop	r0
  b6:	0f be       	out	0x3f, r0	; 63
  b8:	0f 90       	pop	r0
  ba:	1f 90       	pop	r1
  bc:	18 95       	reti

000000be <setup_ports>:

/*********************Функция настройки портов ввода вывода*****************************/

void setup_ports (void) //Начало функции
{
	    PORTB &= ~((1<<PB5)|(1<<PB4)|(1<<PB3)|(1<<PB2)|(1<<PB1)|(1<<PB0));
  be:	88 b3       	in	r24, 0x18	; 24
  c0:	80 7c       	andi	r24, 0xC0	; 192
  c2:	88 bb       	out	0x18, r24	; 24
	    DDRB |= (1<<PB5)|(1<<PB4)|(1<<PB3)|(1<<PB2)|(1<<PB1)|(1<<PB0);
  c4:	87 b3       	in	r24, 0x17	; 23
  c6:	8f 63       	ori	r24, 0x3F	; 63
  c8:	87 bb       	out	0x17, r24	; 23
	    
	    PORTD = 0x00;
  ca:	12 ba       	out	0x12, r1	; 18
	    DDRD = 0xFF;
  cc:	8f ef       	ldi	r24, 0xFF	; 255
  ce:	81 bb       	out	0x11, r24	; 17
	    
	    PORTC |= (1<<PC4)|(1<<PC3)|(1<<PC2)|(1<<PC1)|(1<<PC0);
  d0:	85 b3       	in	r24, 0x15	; 21
  d2:	8f 61       	ori	r24, 0x1F	; 31
  d4:	85 bb       	out	0x15, r24	; 21
		PORTC &= ~(1<<PC5);
  d6:	85 b3       	in	r24, 0x15	; 21
  d8:	8f 7d       	andi	r24, 0xDF	; 223
  da:	85 bb       	out	0x15, r24	; 21
	    DDRC &= ~((1<<PC4)|(1<<PC3)|(1<<PC2)|(1<<PC1)|(1<<PC0));
  dc:	84 b3       	in	r24, 0x14	; 20
  de:	80 7e       	andi	r24, 0xE0	; 224
  e0:	84 bb       	out	0x14, r24	; 20
		DDRC |= (1<<PC5);
  e2:	84 b3       	in	r24, 0x14	; 20
  e4:	80 62       	ori	r24, 0x20	; 32
  e6:	84 bb       	out	0x14, r24	; 20
  e8:	08 95       	ret

000000ea <PCK_mode_T2>:

/*********************Функция настройки второго таймра / счетчика на асинхронный режим работы*****************************/

void PCK_mode_T2 (void) //Начало функции
{
	asm("cli"); // Глобальный запрет прерываний
  ea:	f8 94       	cli
	
	ASSR |= (1<<AS2); // Активация асинхронного режима ТС2
  ec:	82 b5       	in	r24, 0x22	; 34
  ee:	88 60       	ori	r24, 0x08	; 8
  f0:	82 bd       	out	0x22, r24	; 34
	
	while(ASSR != (0b00001000)) // Проверка состояния битов регистра ASSR для безопасной записи данных в остальные регистры ТС2. Все биты кроме 4-го должны быть в ноле
  f2:	01 c0       	rjmp	.+2      	; 0xf6 <PCK_mode_T2+0xc>
	
	{
		asm("nop"); // Повисаем в цикле пока биты в регистре ASSR не примут требуемое состояние. 
  f4:	00 00       	nop
{
	asm("cli"); // Глобальный запрет прерываний
	
	ASSR |= (1<<AS2); // Активация асинхронного режима ТС2
	
	while(ASSR != (0b00001000)) // Проверка состояния битов регистра ASSR для безопасной записи данных в остальные регистры ТС2. Все биты кроме 4-го должны быть в ноле
  f6:	82 b5       	in	r24, 0x22	; 34
  f8:	88 30       	cpi	r24, 0x08	; 8
  fa:	e1 f7       	brne	.-8      	; 0xf4 <PCK_mode_T2+0xa>
	
	{
		asm("nop"); // Повисаем в цикле пока биты в регистре ASSR не примут требуемое состояние. 
	}
	
	TCCR2 |= (1<<WGM21); // Режим СТС. Сброс при совпадении
  fc:	85 b5       	in	r24, 0x25	; 37
  fe:	88 60       	ori	r24, 0x08	; 8
 100:	85 bd       	out	0x25, r24	; 37
	TCCR2 &= ~(1<<WGM20);
 102:	85 b5       	in	r24, 0x25	; 37
 104:	8f 7b       	andi	r24, 0xBF	; 191
 106:	85 bd       	out	0x25, r24	; 37
	TCCR2 |= (1<<CS22)|(1<<CS20); // Делитель таймера 256 для получения интервала в 1 секунду
 108:	85 b5       	in	r24, 0x25	; 37
 10a:	85 60       	ori	r24, 0x05	; 5
 10c:	85 bd       	out	0x25, r24	; 37
	OCR2 = 255; // Чило для регистра сравнения. При совпадении с которым программа перейдет в вектор прерывания
 10e:	8f ef       	ldi	r24, 0xFF	; 255
 110:	83 bd       	out	0x23, r24	; 35
	TIMSK |= (1<<OCIE2); // Разрешение прерывания
 112:	89 b7       	in	r24, 0x39	; 57
 114:	80 68       	ori	r24, 0x80	; 128
 116:	89 bf       	out	0x39, r24	; 57
	TIFR = 0; // Сброс флагов прерывания
 118:	18 be       	out	0x38, r1	; 56
	SFIOR |= (1<<PSR2); // Обнуление предделителя
 11a:	80 b7       	in	r24, 0x30	; 48
 11c:	82 60       	ori	r24, 0x02	; 2
 11e:	80 bf       	out	0x30, r24	; 48
	TCNT2 = 0; // Сброс счетного регистра
 120:	14 bc       	out	0x24, r1	; 36
	
	
	asm("sei"); // Глобальное разрешение прерываний
 122:	78 94       	sei
 124:	08 95       	ret

00000126 <hours>:
} //Конец функции

/**************************Функция расчитывает минуты из накопленных секунд***********************************/
int hours (unsigned long h) //Начало функции
{
	h = ((h / 60) / 60);
 126:	20 e1       	ldi	r18, 0x10	; 16
 128:	3e e0       	ldi	r19, 0x0E	; 14
 12a:	40 e0       	ldi	r20, 0x00	; 0
 12c:	50 e0       	ldi	r21, 0x00	; 0
 12e:	46 d1       	rcall	.+652    	; 0x3bc <__udivmodsi4>
	return h;
} //Конец функции
 130:	c9 01       	movw	r24, r18
 132:	08 95       	ret

00000134 <minutes>:

/**************************Функция расчитывает часы из накопленных секунд***********************************/
int minutes (unsigned long m) //Начало функции
{
 134:	cf 92       	push	r12
 136:	df 92       	push	r13
 138:	ef 92       	push	r14
 13a:	ff 92       	push	r15
	m = ((m / 60) % 60);
 13c:	0f 2e       	mov	r0, r31
 13e:	fc e3       	ldi	r31, 0x3C	; 60
 140:	cf 2e       	mov	r12, r31
 142:	d1 2c       	mov	r13, r1
 144:	e1 2c       	mov	r14, r1
 146:	f1 2c       	mov	r15, r1
 148:	f0 2d       	mov	r31, r0
 14a:	a7 01       	movw	r20, r14
 14c:	96 01       	movw	r18, r12
 14e:	36 d1       	rcall	.+620    	; 0x3bc <__udivmodsi4>
 150:	ca 01       	movw	r24, r20
 152:	b9 01       	movw	r22, r18
 154:	a7 01       	movw	r20, r14
 156:	96 01       	movw	r18, r12
 158:	31 d1       	rcall	.+610    	; 0x3bc <__udivmodsi4>
	
	return m;
}//Конец функции
 15a:	cb 01       	movw	r24, r22
 15c:	ff 90       	pop	r15
 15e:	ef 90       	pop	r14
 160:	df 90       	pop	r13
 162:	cf 90       	pop	r12
 164:	08 95       	ret

00000166 <razbika>:

/**************************Функция разбивает числа на цифры***********************************/
void razbika (unsigned long chislo_1, unsigned long chislo_2) //Начало функции
{
 166:	8f 92       	push	r8
 168:	9f 92       	push	r9
 16a:	af 92       	push	r10
 16c:	bf 92       	push	r11
 16e:	cf 92       	push	r12
 170:	df 92       	push	r13
 172:	ef 92       	push	r14
 174:	ff 92       	push	r15
 176:	49 01       	movw	r8, r18
 178:	5a 01       	movw	r10, r20
	segment_1 = chislo_1 % 10;
 17a:	0f 2e       	mov	r0, r31
 17c:	fa e0       	ldi	r31, 0x0A	; 10
 17e:	cf 2e       	mov	r12, r31
 180:	d1 2c       	mov	r13, r1
 182:	e1 2c       	mov	r14, r1
 184:	f1 2c       	mov	r15, r1
 186:	f0 2d       	mov	r31, r0
 188:	a7 01       	movw	r20, r14
 18a:	96 01       	movw	r18, r12
 18c:	17 d1       	rcall	.+558    	; 0x3bc <__udivmodsi4>
 18e:	60 93 7b 00 	sts	0x007B, r22	; 0x80007b <segment_1>
	segment_2 = chislo_1 / 10;
 192:	20 93 7a 00 	sts	0x007A, r18	; 0x80007a <segment_2>
	
	segment_3 = chislo_2 % 10;
 196:	c5 01       	movw	r24, r10
 198:	b4 01       	movw	r22, r8
 19a:	a7 01       	movw	r20, r14
 19c:	96 01       	movw	r18, r12
 19e:	0e d1       	rcall	.+540    	; 0x3bc <__udivmodsi4>
 1a0:	60 93 79 00 	sts	0x0079, r22	; 0x800079 <segment_3>
	segment_4 = chislo_2 / 10;
 1a4:	20 93 78 00 	sts	0x0078, r18	; 0x800078 <segment_4>
} //Конец функции
 1a8:	ff 90       	pop	r15
 1aa:	ef 90       	pop	r14
 1ac:	df 90       	pop	r13
 1ae:	cf 90       	pop	r12
 1b0:	bf 90       	pop	r11
 1b2:	af 90       	pop	r10
 1b4:	9f 90       	pop	r9
 1b6:	8f 90       	pop	r8
 1b8:	08 95       	ret

000001ba <_7SEG_indikator>:

/**************************Функция вывода времени на семисегментные индикаторы***********************************/
void _7SEG_indikator (void) //Начало функции
{
	switch (segment_number) //Начало оператора switсh
 1ba:	80 91 61 00 	lds	r24, 0x0061	; 0x800061 <segment_number>
 1be:	82 30       	cpi	r24, 0x02	; 2
 1c0:	a1 f0       	breq	.+40     	; 0x1ea <_7SEG_indikator+0x30>
 1c2:	18 f4       	brcc	.+6      	; 0x1ca <_7SEG_indikator+0x10>
 1c4:	81 30       	cpi	r24, 0x01	; 1
 1c6:	31 f0       	breq	.+12     	; 0x1d4 <_7SEG_indikator+0x1a>
 1c8:	08 95       	ret
 1ca:	83 30       	cpi	r24, 0x03	; 3
 1cc:	c9 f0       	breq	.+50     	; 0x200 <__EEPROM_REGION_LENGTH__>
 1ce:	84 30       	cpi	r24, 0x04	; 4
 1d0:	71 f1       	breq	.+92     	; 0x22e <__EEPROM_REGION_LENGTH__+0x2e>
 1d2:	08 95       	ret
	{
		case 1: 
			PORTD = 0x00; //Четвертая цифра
 1d4:	12 ba       	out	0x12, r1	; 18
 			PORTD = number[segment_1];
 1d6:	e0 91 7b 00 	lds	r30, 0x007B	; 0x80007b <segment_1>
 1da:	f0 e0       	ldi	r31, 0x00	; 0
 1dc:	e4 59       	subi	r30, 0x94	; 148
 1de:	ff 4f       	sbci	r31, 0xFF	; 255
 1e0:	80 81       	ld	r24, Z
 1e2:	82 bb       	out	0x12, r24	; 18
 			PORTB = 0b1000;
 1e4:	88 e0       	ldi	r24, 0x08	; 8
 1e6:	88 bb       	out	0x18, r24	; 24
			break;
 1e8:	08 95       	ret
			 
		case 2:
			PORTD = 0x00; //Третья цифра
 1ea:	12 ba       	out	0x12, r1	; 18
			PORTD = number[segment_2];
 1ec:	e0 91 7a 00 	lds	r30, 0x007A	; 0x80007a <segment_2>
 1f0:	f0 e0       	ldi	r31, 0x00	; 0
 1f2:	e4 59       	subi	r30, 0x94	; 148
 1f4:	ff 4f       	sbci	r31, 0xFF	; 255
 1f6:	80 81       	ld	r24, Z
 1f8:	82 bb       	out	0x12, r24	; 18
			PORTB = 0b0100;
 1fa:	84 e0       	ldi	r24, 0x04	; 4
 1fc:	88 bb       	out	0x18, r24	; 24
			break;
 1fe:	08 95       	ret
						
		case 3:
			PORTD = 0x00; //Вторая цифра без точки
 200:	12 ba       	out	0x12, r1	; 18
			
			if (point == 1)
 202:	80 91 60 00 	lds	r24, 0x0060	; 0x800060 <__data_start>
 206:	81 30       	cpi	r24, 0x01	; 1
 208:	41 f4       	brne	.+16     	; 0x21a <__EEPROM_REGION_LENGTH__+0x1a>
			{
				PORTD = number[segment_3];
 20a:	e0 91 79 00 	lds	r30, 0x0079	; 0x800079 <segment_3>
 20e:	f0 e0       	ldi	r31, 0x00	; 0
 210:	e4 59       	subi	r30, 0x94	; 148
 212:	ff 4f       	sbci	r31, 0xFF	; 255
 214:	80 81       	ld	r24, Z
 216:	82 bb       	out	0x12, r24	; 18
 218:	07 c0       	rjmp	.+14     	; 0x228 <__EEPROM_REGION_LENGTH__+0x28>
			}
			else PORTD = number_point[segment_3];
 21a:	e0 91 79 00 	lds	r30, 0x0079	; 0x800079 <segment_3>
 21e:	f0 e0       	ldi	r31, 0x00	; 0
 220:	ee 59       	subi	r30, 0x9E	; 158
 222:	ff 4f       	sbci	r31, 0xFF	; 255
 224:	80 81       	ld	r24, Z
 226:	82 bb       	out	0x12, r24	; 18

			PORTB = 0b0010; //Вторая цифра с точкой
 228:	82 e0       	ldi	r24, 0x02	; 2
 22a:	88 bb       	out	0x18, r24	; 24
			break;
 22c:	08 95       	ret
						
		case 4:
			PORTD = 0x00; //Первая цифра
 22e:	12 ba       	out	0x12, r1	; 18
			PORTD = number[segment_4];
 230:	e0 91 78 00 	lds	r30, 0x0078	; 0x800078 <segment_4>
 234:	f0 e0       	ldi	r31, 0x00	; 0
 236:	e4 59       	subi	r30, 0x94	; 148
 238:	ff 4f       	sbci	r31, 0xFF	; 255
 23a:	80 81       	ld	r24, Z
 23c:	82 bb       	out	0x12, r24	; 18
			PORTB = 0b0001;	
 23e:	81 e0       	ldi	r24, 0x01	; 1
 240:	88 bb       	out	0x18, r24	; 24
 242:	08 95       	ret

00000244 <button>:
} //Конец функции

/**************************Функция обработки кнопок настройки часов***********************************/
void button (void) //Начало функции
{
			if (button_hour == button_delay) // Начало настройки часов. Нажатие на кнопку добавляет по одному часу
 244:	80 91 77 00 	lds	r24, 0x0077	; 0x800077 <button_hour>
 248:	8e 31       	cpi	r24, 0x1E	; 30
 24a:	a1 f4       	brne	.+40     	; 0x274 <button+0x30>
			{
				second = second + 3600;
 24c:	80 91 7c 00 	lds	r24, 0x007C	; 0x80007c <second>
 250:	90 91 7d 00 	lds	r25, 0x007D	; 0x80007d <second+0x1>
 254:	a0 91 7e 00 	lds	r26, 0x007E	; 0x80007e <second+0x2>
 258:	b0 91 7f 00 	lds	r27, 0x007F	; 0x80007f <second+0x3>
 25c:	80 5f       	subi	r24, 0xF0	; 240
 25e:	91 4f       	sbci	r25, 0xF1	; 241
 260:	af 4f       	sbci	r26, 0xFF	; 255
 262:	bf 4f       	sbci	r27, 0xFF	; 255
 264:	80 93 7c 00 	sts	0x007C, r24	; 0x80007c <second>
 268:	90 93 7d 00 	sts	0x007D, r25	; 0x80007d <second+0x1>
 26c:	a0 93 7e 00 	sts	0x007E, r26	; 0x80007e <second+0x2>
 270:	b0 93 7f 00 	sts	0x007F, r27	; 0x80007f <second+0x3>
			} // Конец настройки часов
			
			if (button_minute == button_delay) // Начало настройки минут. Нажати на кнопку добавляет по одной минуте
 274:	80 91 76 00 	lds	r24, 0x0076	; 0x800076 <__data_end>
 278:	8e 31       	cpi	r24, 0x1E	; 30
 27a:	99 f4       	brne	.+38     	; 0x2a2 <button+0x5e>
			{
				second = second + 60;
 27c:	80 91 7c 00 	lds	r24, 0x007C	; 0x80007c <second>
 280:	90 91 7d 00 	lds	r25, 0x007D	; 0x80007d <second+0x1>
 284:	a0 91 7e 00 	lds	r26, 0x007E	; 0x80007e <second+0x2>
 288:	b0 91 7f 00 	lds	r27, 0x007F	; 0x80007f <second+0x3>
 28c:	cc 96       	adiw	r24, 0x3c	; 60
 28e:	a1 1d       	adc	r26, r1
 290:	b1 1d       	adc	r27, r1
 292:	80 93 7c 00 	sts	0x007C, r24	; 0x80007c <second>
 296:	90 93 7d 00 	sts	0x007D, r25	; 0x80007d <second+0x1>
 29a:	a0 93 7e 00 	sts	0x007E, r26	; 0x80007e <second+0x2>
 29e:	b0 93 7f 00 	sts	0x007F, r27	; 0x80007f <second+0x3>
 2a2:	08 95       	ret

000002a4 <TC0_setup>:
} //Конец функции

/**************************Функция настрйки ТС0***********************************/
void TC0_setup (void) //Начало функции
{
	TCCR0 |= (1<<CS02); //Предделитеь настроен на 256
 2a4:	83 b7       	in	r24, 0x33	; 51
 2a6:	84 60       	ori	r24, 0x04	; 4
 2a8:	83 bf       	out	0x33, r24	; 51
	TIMSK |= (1<<TOIE0); // Разрешаем прерывание на переполнению 
 2aa:	89 b7       	in	r24, 0x39	; 57
 2ac:	81 60       	ori	r24, 0x01	; 1
 2ae:	89 bf       	out	0x39, r24	; 57
	TCNT0 = 178; //Число в регистре с которого начинается счет чтобы получить 2мс
 2b0:	82 eb       	ldi	r24, 0xB2	; 178
 2b2:	82 bf       	out	0x32, r24	; 50
 2b4:	08 95       	ret

000002b6 <main>:
}

int main(void) // Начало основной функции main
{

	setup_ports(); // Настройка портов ввода / вывода
 2b6:	03 df       	rcall	.-506    	; 0xbe <setup_ports>
	
	PCK_mode_T2(); // Настройка T2 в асинхронный режим
 2b8:	18 df       	rcall	.-464    	; 0xea <PCK_mode_T2>
	
	TC0_setup(); // Запуск ТС0
 2ba:	f4 df       	rcall	.-24     	; 0x2a4 <TC0_setup>
	
    while (1) //Начало основного цикла
    {
		razbika(minutes(second), hours(second)); //В данную функцию передаем накопленные секунды для пересчета их в часы и минуты
 2bc:	c0 90 7c 00 	lds	r12, 0x007C	; 0x80007c <second>
 2c0:	d0 90 7d 00 	lds	r13, 0x007D	; 0x80007d <second+0x1>
 2c4:	e0 90 7e 00 	lds	r14, 0x007E	; 0x80007e <second+0x2>
 2c8:	f0 90 7f 00 	lds	r15, 0x007F	; 0x80007f <second+0x3>
 2cc:	c7 01       	movw	r24, r14
 2ce:	b6 01       	movw	r22, r12
 2d0:	2a df       	rcall	.-428    	; 0x126 <hours>
 2d2:	ec 01       	movw	r28, r24
 2d4:	c7 01       	movw	r24, r14
 2d6:	b6 01       	movw	r22, r12
 2d8:	2d df       	rcall	.-422    	; 0x134 <minutes>
 2da:	9e 01       	movw	r18, r28
 2dc:	dd 0f       	add	r29, r29
 2de:	44 0b       	sbc	r20, r20
 2e0:	55 0b       	sbc	r21, r21
 2e2:	bc 01       	movw	r22, r24
 2e4:	99 0f       	add	r25, r25
 2e6:	88 0b       	sbc	r24, r24
 2e8:	99 0b       	sbc	r25, r25
 2ea:	3d df       	rcall	.-390    	; 0x166 <razbika>
		
		_7SEG_indikator(); //Функция вывода времени на семисегментный индикатор
 2ec:	66 df       	rcall	.-308    	; 0x1ba <_7SEG_indikator>
		
		if (second > 86400) // В сутках 86400 секунд. При переполнении сбрасываем секнды в ноль. 
 2ee:	80 91 7c 00 	lds	r24, 0x007C	; 0x80007c <second>
 2f2:	90 91 7d 00 	lds	r25, 0x007D	; 0x80007d <second+0x1>
 2f6:	a0 91 7e 00 	lds	r26, 0x007E	; 0x80007e <second+0x2>
 2fa:	b0 91 7f 00 	lds	r27, 0x007F	; 0x80007f <second+0x3>
 2fe:	81 38       	cpi	r24, 0x81	; 129
 300:	91 45       	sbci	r25, 0x51	; 81
 302:	a1 40       	sbci	r26, 0x01	; 1
 304:	b1 05       	cpc	r27, r1
 306:	d0 f2       	brcs	.-76     	; 0x2bc <main+0x6>
		{
			second = 0;
 308:	10 92 7c 00 	sts	0x007C, r1	; 0x80007c <second>
 30c:	10 92 7d 00 	sts	0x007D, r1	; 0x80007d <second+0x1>
 310:	10 92 7e 00 	sts	0x007E, r1	; 0x80007e <second+0x2>
 314:	10 92 7f 00 	sts	0x007F, r1	; 0x80007f <second+0x3>
 318:	d1 cf       	rjmp	.-94     	; 0x2bc <main+0x6>

0000031a <button_touch_delay>:
} //Конец функции

/**************************Функция реализует задержку смены цифры при настройке "Часов" и "Минут"***********************************/
void button_touch_delay (void) //Начало функции
{
		if (~PINC & (1<<PC1)) //Задержка срабатывания кнопки, настройки "Часов"
 31a:	99 99       	sbic	0x13, 1	; 19
 31c:	06 c0       	rjmp	.+12     	; 0x32a <button_touch_delay+0x10>
		{
			button_hour ++; //Переменнах хоанит задержку для настройки "Часов"
 31e:	80 91 77 00 	lds	r24, 0x0077	; 0x800077 <button_hour>
 322:	8f 5f       	subi	r24, 0xFF	; 255
 324:	80 93 77 00 	sts	0x0077, r24	; 0x800077 <button_hour>
 328:	02 c0       	rjmp	.+4      	; 0x32e <button_touch_delay+0x14>
		}
		else button_hour = 0;
 32a:	10 92 77 00 	sts	0x0077, r1	; 0x800077 <button_hour>
		
		if (button_hour > button_delay)  //Обнуление переменной хранящей задержку "Часов" если кнопка настройки не нажата 
 32e:	80 91 77 00 	lds	r24, 0x0077	; 0x800077 <button_hour>
 332:	8f 31       	cpi	r24, 0x1F	; 31
 334:	10 f0       	brcs	.+4      	; 0x33a <button_touch_delay+0x20>
		{
			button_hour = 0;
 336:	10 92 77 00 	sts	0x0077, r1	; 0x800077 <button_hour>
		}
		
		if (~PINC & (1<<PC2)) //Задержка срабатывания кнопки, настройки "Минут"
 33a:	9a 99       	sbic	0x13, 2	; 19
 33c:	06 c0       	rjmp	.+12     	; 0x34a <button_touch_delay+0x30>
		{
			button_minute ++; //Переменнах хоанит задержку для настройки "Минут"
 33e:	80 91 76 00 	lds	r24, 0x0076	; 0x800076 <__data_end>
 342:	8f 5f       	subi	r24, 0xFF	; 255
 344:	80 93 76 00 	sts	0x0076, r24	; 0x800076 <__data_end>
 348:	02 c0       	rjmp	.+4      	; 0x34e <button_touch_delay+0x34>
		}
		else button_minute = 0;
 34a:	10 92 76 00 	sts	0x0076, r1	; 0x800076 <__data_end>
		
		if (button_minute > button_delay)  //Обнуление переменной хранящей задержку "Минут" если кнопка настройки не нажата 
 34e:	80 91 76 00 	lds	r24, 0x0076	; 0x800076 <__data_end>
 352:	8f 31       	cpi	r24, 0x1F	; 31
 354:	10 f0       	brcs	.+4      	; 0x35a <button_touch_delay+0x40>
		{
			button_minute = 0;
 356:	10 92 76 00 	sts	0x0076, r1	; 0x800076 <__data_end>
 35a:	08 95       	ret

0000035c <__vector_9>:

unsigned char button_hour = 0;
unsigned char button_minute = 0;

ISR (TIMER0_OVF_vect)
{
 35c:	1f 92       	push	r1
 35e:	0f 92       	push	r0
 360:	0f b6       	in	r0, 0x3f	; 63
 362:	0f 92       	push	r0
 364:	11 24       	eor	r1, r1
 366:	2f 93       	push	r18
 368:	3f 93       	push	r19
 36a:	4f 93       	push	r20
 36c:	5f 93       	push	r21
 36e:	6f 93       	push	r22
 370:	7f 93       	push	r23
 372:	8f 93       	push	r24
 374:	9f 93       	push	r25
 376:	af 93       	push	r26
 378:	bf 93       	push	r27
 37a:	ef 93       	push	r30
 37c:	ff 93       	push	r31
	segment_number++;
 37e:	80 91 61 00 	lds	r24, 0x0061	; 0x800061 <segment_number>
 382:	8f 5f       	subi	r24, 0xFF	; 255
 384:	80 93 61 00 	sts	0x0061, r24	; 0x800061 <segment_number>
	
	if (segment_number >= 5)
 388:	85 30       	cpi	r24, 0x05	; 5
 38a:	18 f0       	brcs	.+6      	; 0x392 <__vector_9+0x36>
	{
		segment_number = 1;
 38c:	81 e0       	ldi	r24, 0x01	; 1
 38e:	80 93 61 00 	sts	0x0061, r24	; 0x800061 <segment_number>
	}
	
	button_touch_delay(); //Задержка срабатывания кнопок для настройки "Часов" и "Минут"
 392:	c3 df       	rcall	.-122    	; 0x31a <button_touch_delay>
	
	button(); //Функция обработки кнопок настройки часов
 394:	57 df       	rcall	.-338    	; 0x244 <button>
	
	TCNT0 = 178; //Записываем число 178 в регистр TCNT0, для получения интервала 2мс. Это интервал срабатывания прерывания по переполнению ТС0
 396:	82 eb       	ldi	r24, 0xB2	; 178
 398:	82 bf       	out	0x32, r24	; 50
}
 39a:	ff 91       	pop	r31
 39c:	ef 91       	pop	r30
 39e:	bf 91       	pop	r27
 3a0:	af 91       	pop	r26
 3a2:	9f 91       	pop	r25
 3a4:	8f 91       	pop	r24
 3a6:	7f 91       	pop	r23
 3a8:	6f 91       	pop	r22
 3aa:	5f 91       	pop	r21
 3ac:	4f 91       	pop	r20
 3ae:	3f 91       	pop	r19
 3b0:	2f 91       	pop	r18
 3b2:	0f 90       	pop	r0
 3b4:	0f be       	out	0x3f, r0	; 63
 3b6:	0f 90       	pop	r0
 3b8:	1f 90       	pop	r1
 3ba:	18 95       	reti

000003bc <__udivmodsi4>:
 3bc:	a1 e2       	ldi	r26, 0x21	; 33
 3be:	1a 2e       	mov	r1, r26
 3c0:	aa 1b       	sub	r26, r26
 3c2:	bb 1b       	sub	r27, r27
 3c4:	fd 01       	movw	r30, r26
 3c6:	0d c0       	rjmp	.+26     	; 0x3e2 <__udivmodsi4_ep>

000003c8 <__udivmodsi4_loop>:
 3c8:	aa 1f       	adc	r26, r26
 3ca:	bb 1f       	adc	r27, r27
 3cc:	ee 1f       	adc	r30, r30
 3ce:	ff 1f       	adc	r31, r31
 3d0:	a2 17       	cp	r26, r18
 3d2:	b3 07       	cpc	r27, r19
 3d4:	e4 07       	cpc	r30, r20
 3d6:	f5 07       	cpc	r31, r21
 3d8:	20 f0       	brcs	.+8      	; 0x3e2 <__udivmodsi4_ep>
 3da:	a2 1b       	sub	r26, r18
 3dc:	b3 0b       	sbc	r27, r19
 3de:	e4 0b       	sbc	r30, r20
 3e0:	f5 0b       	sbc	r31, r21

000003e2 <__udivmodsi4_ep>:
 3e2:	66 1f       	adc	r22, r22
 3e4:	77 1f       	adc	r23, r23
 3e6:	88 1f       	adc	r24, r24
 3e8:	99 1f       	adc	r25, r25
 3ea:	1a 94       	dec	r1
 3ec:	69 f7       	brne	.-38     	; 0x3c8 <__udivmodsi4_loop>
 3ee:	60 95       	com	r22
 3f0:	70 95       	com	r23
 3f2:	80 95       	com	r24
 3f4:	90 95       	com	r25
 3f6:	9b 01       	movw	r18, r22
 3f8:	ac 01       	movw	r20, r24
 3fa:	bd 01       	movw	r22, r26
 3fc:	cf 01       	movw	r24, r30
 3fe:	08 95       	ret

00000400 <_exit>:
 400:	f8 94       	cli

00000402 <__stop_program>:
 402:	ff cf       	rjmp	.-2      	; 0x402 <__stop_program>
